; ModuleID = '12/491.c'
source_filename = "12/491.c"
target datalayout = "e-m:e-p270:32:32-p271:32:32-p272:64:64-i64:64-f80:128-n8:16:32:64-S128"
target triple = "x86_64-pc-linux-gnu"

@.str = private unnamed_addr constant [3 x i8] c"%d\00", align 1
@mat = common dso_local global [300 x i32] zeroinitializer, align 16
@.str.1 = private unnamed_addr constant [4 x i8] c"%d\0A\00", align 1

; Function Attrs: noinline nounwind uwtable
define dso_local i32 @main() #0 {
  %1 = alloca i32, align 4
  %2 = alloca i32, align 4
  %3 = alloca i32, align 4
  store i32 0, i32* %1, align 4
  store i32 0, i32* %3, align 4
  br label %4

4:                                                ; preds = %42, %0
  %5 = call i32 (i8*, ...) @__isoc99_scanf(i8* getelementptr inbounds ([3 x i8], [3 x i8]* @.str, i64 0, i64 0), i32* %2)
  %6 = load i32, i32* %2, align 4
  %7 = icmp ne i32 %6, -1
  br i1 %7, label %8, label %43

8:                                                ; preds = %4
  %9 = load i32, i32* %2, align 4
  %10 = icmp ne i32 %9, 0
  br i1 %10, label %11, label %39

11:                                               ; preds = %8
  %12 = load i32, i32* %2, align 4
  %13 = sext i32 %12 to i64
  %14 = getelementptr inbounds [300 x i32], [300 x i32]* @mat, i64 0, i64 %13
  store i32 1, i32* %14, align 4
  %15 = load i32, i32* %2, align 4
  %16 = shl i32 %15, 1
  %17 = sext i32 %16 to i64
  %18 = getelementptr inbounds [300 x i32], [300 x i32]* @mat, i64 0, i64 %17
  %19 = load i32, i32* %18, align 4
  %20 = icmp ne i32 %19, 0
  br i1 %20, label %21, label %24

21:                                               ; preds = %11
  %22 = load i32, i32* %3, align 4
  %23 = add nsw i32 %22, 1
  store i32 %23, i32* %3, align 4
  br label %24

24:                                               ; preds = %21, %11
  %25 = load i32, i32* %2, align 4
  %26 = and i32 %25, 1
  %27 = icmp ne i32 %26, 0
  br i1 %27, label %38, label %28

28:                                               ; preds = %24
  %29 = load i32, i32* %2, align 4
  %30 = ashr i32 %29, 1
  %31 = sext i32 %30 to i64
  %32 = getelementptr inbounds [300 x i32], [300 x i32]* @mat, i64 0, i64 %31
  %33 = load i32, i32* %32, align 4
  %34 = icmp ne i32 %33, 0
  br i1 %34, label %35, label %38

35:                                               ; preds = %28
  %36 = load i32, i32* %3, align 4
  %37 = add nsw i32 %36, 1
  store i32 %37, i32* %3, align 4
  br label %38

38:                                               ; preds = %35, %28, %24
  br label %42

39:                                               ; preds = %8
  %40 = load i32, i32* %3, align 4
  %41 = call i32 (i8*, ...) @printf(i8* getelementptr inbounds ([4 x i8], [4 x i8]* @.str.1, i64 0, i64 0), i32 %40)
  store i32 0, i32* %3, align 4
  call void @llvm.memset.p0i8.i64(i8* align 16 bitcast ([300 x i32]* @mat to i8*), i8 0, i64 1200, i1 false)
  br label %42

42:                                               ; preds = %39, %38
  br label %4

43:                                               ; preds = %4
  %44 = load i32, i32* %1, align 4
  ret i32 %44
}

declare dso_local i32 @__isoc99_scanf(i8*, ...) #1

declare dso_local i32 @printf(i8*, ...) #1

; Function Attrs: argmemonly nounwind willreturn
declare void @llvm.memset.p0i8.i64(i8* nocapture writeonly, i8, i64, i1 immarg) #2


!llvm.module.flags = !{!0}
!llvm.ident = !{!1}

!0 = !{i32 1, !"wchar_size", i32 4}
!1 = !{!"clang version 10.0.0-4ubuntu1 "}
