; ModuleID = 'source-C-CXX/11/491.c'
source_filename = "source-C-CXX/11/491.c"
target datalayout = "e-m:e-p270:32:32-p271:32:32-p272:64:64-i64:64-f80:128-n8:16:32:64-S128"
target triple = "x86_64-pc-linux-gnu"

@.str = private unnamed_addr constant [3 x i8] c"%d\00", align 1
@mat = dso_local local_unnamed_addr global [300 x i32] zeroinitializer, align 16
@.str.1 = private unnamed_addr constant [4 x i8] c"%d\0A\00", align 1

; Function Attrs: nofree nounwind sspstrong uwtable
define dso_local i32 @main() local_unnamed_addr #0 {
  %1 = alloca i32, align 4
  %2 = bitcast i32* %1 to i8*
  call void @llvm.lifetime.start.p0i8(i64 4, i8* nonnull %2) #4
  br label %3

3:                                                ; preds = %27, %0
  %4 = phi i32 [ 0, %0 ], [ %28, %27 ]
  %5 = call i32 (i8*, ...) @__isoc99_scanf(i8* getelementptr inbounds ([3 x i8], [3 x i8]* @.str, i64 0, i64 0), i32* nonnull %1)
  %6 = load i32, i32* %1, align 4, !tbaa !5
  switch i32 %6, label %7 [
    i32 -1, label %31
    i32 0, label %29
  ]

7:                                                ; preds = %3
  %8 = sext i32 %6 to i64
  %9 = getelementptr inbounds [300 x i32], [300 x i32]* @mat, i64 0, i64 %8
  store i32 1, i32* %9, align 4, !tbaa !5
  %10 = shl i32 %6, 1
  %11 = sext i32 %10 to i64
  %12 = getelementptr inbounds [300 x i32], [300 x i32]* @mat, i64 0, i64 %11
  %13 = load i32, i32* %12, align 8, !tbaa !5
  %14 = icmp ne i32 %13, 0
  %15 = zext i1 %14 to i32
  %16 = add nsw i32 %4, %15
  %17 = and i32 %6, 1
  %18 = icmp eq i32 %17, 0
  br i1 %18, label %19, label %27

19:                                               ; preds = %7
  %20 = ashr i32 %6, 1
  %21 = sext i32 %20 to i64
  %22 = getelementptr inbounds [300 x i32], [300 x i32]* @mat, i64 0, i64 %21
  %23 = load i32, i32* %22, align 4, !tbaa !5
  %24 = icmp ne i32 %23, 0
  %25 = zext i1 %24 to i32
  %26 = add nsw i32 %16, %25
  br label %27

27:                                               ; preds = %19, %7, %29
  %28 = phi i32 [ %16, %7 ], [ 0, %29 ], [ %26, %19 ]
  br label %3, !llvm.loop !9

29:                                               ; preds = %3
  %30 = call i32 (i8*, ...) @printf(i8* nonnull dereferenceable(1) getelementptr inbounds ([4 x i8], [4 x i8]* @.str.1, i64 0, i64 0), i32 %4)
  call void @llvm.memset.p0i8.i64(i8* noundef nonnull align 16 dereferenceable(1200) bitcast ([300 x i32]* @mat to i8*), i8 0, i64 1200, i1 false)
  br label %27

31:                                               ; preds = %3
  call void @llvm.lifetime.end.p0i8(i64 4, i8* nonnull %2) #4
  ret i32 0
}

; Function Attrs: argmemonly mustprogress nofree nosync nounwind willreturn
declare void @llvm.lifetime.start.p0i8(i64 immarg, i8* nocapture) #1

; Function Attrs: nofree nounwind
declare noundef i32 @__isoc99_scanf(i8* nocapture noundef readonly, ...) local_unnamed_addr #2

; Function Attrs: nofree nounwind
declare noundef i32 @printf(i8* nocapture noundef readonly, ...) local_unnamed_addr #2

; Function Attrs: argmemonly mustprogress nofree nounwind willreturn writeonly
declare void @llvm.memset.p0i8.i64(i8* nocapture writeonly, i8, i64, i1 immarg) #3

; Function Attrs: argmemonly mustprogress nofree nosync nounwind willreturn
declare void @llvm.lifetime.end.p0i8(i64 immarg, i8* nocapture) #1


!llvm.module.flags = !{!0, !1, !2, !3}
!llvm.ident = !{!4}

!0 = !{i32 1, !"wchar_size", i32 4}
!1 = !{i32 7, !"PIC Level", i32 2}
!2 = !{i32 7, !"PIE Level", i32 2}
!3 = !{i32 7, !"uwtable", i32 1}
!4 = !{!"clang version 13.0.0"}
!5 = !{!6, !6, i64 0}
!6 = !{!"int", !7, i64 0}
!7 = !{!"omnipotent char", !8, i64 0}
!8 = !{!"Simple C/C++ TBAA"}
!9 = distinct !{!9, !10}
!10 = !{!"llvm.loop.mustprogress"}
